; Function Attrs: mustprogress uwtable
define void @_ZN11BigUnsignedmmEv(ptr noundef nonnull align 8 captures(none) dereferenceable(16) %0) local_unnamed_addr #0 align 2 {
  %2 = getelementptr inbounds nuw i8, ptr %0, i64 4
  %3 = load i32, ptr %2, align 4, !tbaa !14
  %4 = icmp eq i32 %3, 0
  br i1 %4, label %7, label %.preheader

.preheader:                                       ; preds = %1
  %5 = getelementptr inbounds nuw i8, ptr %0, i64 8
  %6 = load ptr, ptr %5, align 8, !tbaa !13
  br label %9

7:                                                ; preds = %1
  %8 = tail call ptr @__cxa_allocate_exception(i64 8) #9
  store ptr @.str.4, ptr %8, align 16, !tbaa !17
  tail call void @__cxa_throw(ptr nonnull %8, ptr nonnull @_ZTIPKc, ptr null) #10
  unreachable

9:                                                ; preds = %.preheader, %9
  %.045 = phi i32 [ 0, %.preheader ], [ %15, %9 ]
  %10 = zext i32 %.045 to i64
  %11 = getelementptr inbounds nuw i64, ptr %6, i64 %10
  %12 = load i64, ptr %11, align 8, !tbaa !15
  %13 = icmp eq i64 %12, 0
  %14 = add i64 %12, -1
  store i64 %14, ptr %11, align 8, !tbaa !15
  %15 = add i32 %.045, 1
  br i1 %13, label %9, label %16, !llvm.loop !48

16:                                               ; preds = %9
  %17 = add i32 %3, -1
  %18 = zext i32 %17 to i64
  %19 = getelementptr inbounds nuw i64, ptr %6, i64 %18
  %20 = load i64, ptr %19, align 8, !tbaa !15
  %21 = icmp eq i64 %20, 0
  br i1 %21, label %22, label %23

22:                                               ; preds = %16
  store i32 %17, ptr %2, align 4, !tbaa !14
  br label %23

23:                                               ; preds = %22, %16
  ret void
}